; Function Attrs: mustprogress uwtable
define void @_ZN9grpc_core12StatusSetStrEPN4absl12lts_202407226StatusENS_17StatusStrPropertyESt17basic_string_viewIcSt11char_traitsIcEE(ptr noundef captures(none) %0, i32 noundef %1, i64 %2, ptr %3) local_unnamed_addr #3 personality ptr @__gxx_personality_v0 {
  %5 = alloca %"class.absl::lts_20240722::Cord", align 8
  %6 = alloca %"class.absl::lts_20240722::Cord", align 8
  %7 = icmp ult i32 %1, 3
  br i1 %7, label %switch.lookup, label %8

8:                                                ; preds = %4
  tail call void @gpr_unreachable_code(ptr noundef nonnull @.str.16, ptr noundef nonnull @.str.17, i32 noundef 89) #29
  unreachable

switch.lookup:                                    ; preds = %4
  %9 = zext nneg i32 %1 to i64
  %switch.gep = getelementptr inbounds nuw [3 x ptr], ptr @switch.table._ZN9grpc_core12StatusGetStrB5cxx11ERKN4absl12lts_202407226StatusENS_17StatusStrPropertyE, i64 0, i64 %9
  %switch.load = load ptr, ptr %switch.gep, align 8
  %10 = tail call noundef i64 @strlen(ptr noundef nonnull dereferenceable(1) %switch.load) #28
  call void @_ZN4absl12lts_202407224CordC2ESt17basic_string_viewIcSt11char_traitsIcEENS0_13cord_internal18CordzUpdateTracker16MethodIdentifierE(ptr noundef nonnull align 8 dereferenceable(16) %6, i64 %2, ptr %3, i32 noundef 9)
  call void @llvm.lifetime.start.p0(i64 16, ptr nonnull %5)
  %11 = load i64, ptr %0, align 8, !tbaa !8
  %12 = icmp eq i64 %11, 1
  br i1 %12, label %25, label %13

13:                                               ; preds = %switch.lookup
  %14 = invoke noundef ptr @_ZN4absl12lts_202407226Status15PrepareToModifyEm(i64 noundef %11)
          to label %.noexc unwind label %32

.noexc:                                           ; preds = %13
  call void @llvm.memcpy.p0.p0.i64(ptr noundef nonnull align 8 dereferenceable(16) %5, ptr noundef nonnull align 8 dereferenceable(16) %6, i64 16, i1 false), !tbaa.struct !11
  call void @llvm.memset.p0.i64(ptr noundef nonnull align 8 dereferenceable(16) %6, i8 0, i64 16, i1 false)
  invoke void @_ZN4absl12lts_2024072215status_internal9StatusRep10SetPayloadESt17basic_string_viewIcSt11char_traitsIcEENS0_4CordE(ptr noundef nonnull align 8 dereferenceable(48) %14, i64 %10, ptr nonnull %switch.load, ptr noundef nonnull %5)
          to label %15 unwind label %23

15:                                               ; preds = %.noexc
  %16 = load i8, ptr %5, align 8, !tbaa !12
  %17 = and i8 %16, 1
  %.not.i.i = icmp eq i8 %17, 0
  br i1 %.not.i.i, label %_ZN4absl12lts_202407224CordD2Ev.exit.i, label %18

18:                                               ; preds = %15
  invoke void @_ZN4absl12lts_202407224Cord15DestroyCordSlowEv(ptr noundef nonnull align 8 dereferenceable(16) %5)
          to label %_ZN4absl12lts_202407224CordD2Ev.exit.i unwind label %19

19:                                               ; preds = %18
  %20 = landingpad { ptr, i32 }
          catch ptr null
  %21 = extractvalue { ptr, i32 } %20, 0
  call void @__clang_call_terminate(ptr %21) #27
  unreachable

_ZN4absl12lts_202407224CordD2Ev.exit.i:           ; preds = %18, %15
  %22 = ptrtoint ptr %14 to i64
  store i64 %22, ptr %0, align 8, !tbaa !8
  br label %25

23:                                               ; preds = %.noexc
  %24 = landingpad { ptr, i32 }
          cleanup
  call void @_ZN4absl12lts_202407224CordD2Ev(ptr noundef nonnull align 8 dereferenceable(16) %5) #28
  br label %.body

25:                                               ; preds = %_ZN4absl12lts_202407224CordD2Ev.exit.i, %switch.lookup
  call void @llvm.lifetime.end.p0(i64 16, ptr nonnull %5)
  %26 = load i8, ptr %6, align 8, !tbaa !12
  %27 = and i8 %26, 1
  %.not.i = icmp eq i8 %27, 0
  br i1 %.not.i, label %_ZN4absl12lts_202407224CordD2Ev.exit, label %28

28:                                               ; preds = %25
  invoke void @_ZN4absl12lts_202407224Cord15DestroyCordSlowEv(ptr noundef nonnull align 8 dereferenceable(16) %6)
          to label %_ZN4absl12lts_202407224CordD2Ev.exit unwind label %29

29:                                               ; preds = %28
  %30 = landingpad { ptr, i32 }
          catch ptr null
  %31 = extractvalue { ptr, i32 } %30, 0
  call void @__clang_call_terminate(ptr %31) #27
  unreachable

_ZN4absl12lts_202407224CordD2Ev.exit:             ; preds = %25, %28
  ret void

32:                                               ; preds = %13
  %33 = landingpad { ptr, i32 }
          cleanup
  br label %.body

.body:                                            ; preds = %23, %32
  %eh.lpad-body = phi { ptr, i32 } [ %33, %32 ], [ %24, %23 ]
  call void @_ZN4absl12lts_202407224CordD2Ev(ptr noundef nonnull align 8 dereferenceable(16) %6) #28
  resume { ptr, i32 } %eh.lpad-body
}